target datalayout = "e-m:e-p270:32:32-p271:32:32-p272:64:64-i64:64-i128:128-f80:128-n8:16:32:64-S128"
target triple = "x86_64-unknown-linux-gnu"

%"class.v8::Local" = type { %"class.v8::LocalBase" }
%"class.v8::LocalBase" = type { %"class.v8::IndirectHandleBase" }
%"class.v8::IndirectHandleBase" = type { ptr }
%"class.v8::Local.316" = type { %"class.v8::LocalBase.317" }
%"class.v8::LocalBase.317" = type { %"class.v8::IndirectHandleBase" }
%"class.v8::MaybeLocal" = type { %"class.v8::Local.316" }

@_ZN4node18ContextEmbedderTag18kNodeContextTagPtrE = external constant ptr, align 8

; Function Attrs: mustprogress nounwind uwtable
define linkonce_odr dso_local noundef zeroext i1 @_ZN4node18ContextEmbedderTag13IsNodeContextEN2v85LocalINS1_7ContextEEE(ptr %context.coerce) #4 comdat align 2 {
entry:
  %slot.addr.i38 = alloca ptr, align 8
  %slot.addr.i = alloca ptr, align 8
  %this.addr.i.i33 = alloca ptr, align 8
  %this.addr.i34 = alloca ptr, align 8
  %this.addr.i.i = alloca ptr, align 8
  %this.addr.i31 = alloca ptr, align 8
  %heap_object_ptr.addr.i.i = alloca i64, align 8
  %offset.addr.i.i = alloca i32, align 4
  %addr.i.i = alloca i64, align 8
  %isolate.addr.i = alloca ptr, align 8
  %heap_object_ptr.addr.i29 = alloca i64, align 8
  %offset.addr.i30 = alloca i32, align 4
  %obj.addr.i = alloca i64, align 8
  %value.addr.i = alloca ptr, align 8
  %heap_object_ptr.addr.i26 = alloca i64, align 8
  %offset.addr.i27 = alloca i32, align 4
  %addr.i = alloca i64, align 8
  %heap_object_ptr.addr.i = alloca i64, align 8
  %offset.addr.i = alloca i32, align 4
  %this.addr.i22 = alloca ptr, align 8
  %index.addr.i = alloca i32, align 4
  %ctx.i = alloca i64, align 8
  %embedder_data.i = alloca i64, align 8
  %value_offset.i = alloca i32, align 4
  %isolate.i = alloca ptr, align 8
  %this.addr.i20 = alloca ptr, align 8
  %this.addr.i17 = alloca ptr, align 8
  %this.addr.i = alloca ptr, align 8
  %retval = alloca i1, align 1
  %context = alloca %"class.v8::Local.316", align 8
  %coerce.dive = getelementptr inbounds %"class.v8::Local.316", ptr %context, i32 0, i32 0
  %coerce.dive1 = getelementptr inbounds %"class.v8::LocalBase.317", ptr %coerce.dive, i32 0, i32 0
  %coerce.dive2 = getelementptr inbounds %"class.v8::IndirectHandleBase", ptr %coerce.dive1, i32 0, i32 0
  store ptr %context.coerce, ptr %coerce.dive2, align 8
  store ptr %context, ptr %this.addr.i20, align 8
  %this1.i21 = load ptr, ptr %this.addr.i20, align 8
  %0 = load ptr, ptr %this1.i21, align 8
  %cmp.i = icmp eq ptr %0, null
  %lnot = xor i1 %cmp.i, true
  %lnot3 = xor i1 %lnot, true
  br i1 %lnot3, label %if.then, label %if.end

if.then:                                          ; preds = %entry
  store i1 false, ptr %retval, align 1
  br label %return

if.end:                                           ; preds = %entry
  store ptr %context, ptr %this.addr.i17, align 8
  %this1.i18 = load ptr, ptr %this.addr.i17, align 8
  store ptr %this1.i18, ptr %this.addr.i31, align 8
  %this1.i32 = load ptr, ptr %this.addr.i31, align 8
  store ptr %this1.i32, ptr %this.addr.i.i, align 8
  %this1.i.i = load ptr, ptr %this.addr.i.i, align 8
  %1 = load ptr, ptr %this1.i.i, align 8
  store ptr %1, ptr %slot.addr.i38, align 8
  %2 = load ptr, ptr %slot.addr.i38, align 8
  %call5 = call noundef i32 @_ZN2v87Context29GetNumberOfEmbedderDataFieldsEv(ptr noundef nonnull align 1 dereferenceable(1) %2)
  %cmp = icmp ule i32 %call5, 39
  %lnot6 = xor i1 %cmp, true
  %lnot7 = xor i1 %lnot6, true
  br i1 %lnot7, label %if.then8, label %if.end9

if.then8:                                         ; preds = %if.end
  store i1 false, ptr %retval, align 1
  br label %return

if.end9:                                          ; preds = %if.end
  store ptr %context, ptr %this.addr.i, align 8
  %this1.i = load ptr, ptr %this.addr.i, align 8
  store ptr %this1.i, ptr %this.addr.i34, align 8
  %this1.i35 = load ptr, ptr %this.addr.i34, align 8
  store ptr %this1.i35, ptr %this.addr.i.i33, align 8
  %this1.i.i36 = load ptr, ptr %this.addr.i.i33, align 8
  %3 = load ptr, ptr %this1.i.i36, align 8
  store ptr %3, ptr %slot.addr.i, align 8
  %4 = load ptr, ptr %slot.addr.i, align 8
  store ptr %4, ptr %this.addr.i22, align 8
  store i32 39, ptr %index.addr.i, align 4
  %this1.i23 = load ptr, ptr %this.addr.i22, align 8
  store ptr %this1.i23, ptr %value.addr.i, align 8
  %5 = load ptr, ptr %value.addr.i, align 8
  %6 = load i64, ptr %5, align 8
  store i64 %6, ptr %ctx.i, align 8
  %7 = load i64, ptr %ctx.i, align 8
  store i64 %7, ptr %heap_object_ptr.addr.i, align 8
  store i32 48, ptr %offset.addr.i, align 4
  %8 = load i64, ptr %heap_object_ptr.addr.i, align 8
  %9 = load i32, ptr %offset.addr.i, align 4
  store i64 %8, ptr %heap_object_ptr.addr.i26, align 8
  store i32 %9, ptr %offset.addr.i27, align 4
  %10 = load i64, ptr %heap_object_ptr.addr.i26, align 8
  %11 = load i32, ptr %offset.addr.i27, align 4
  %conv.i = sext i32 %11 to i64
  %add.i28 = add i64 %10, %conv.i
  %sub.i = sub i64 %add.i28, 1
  store i64 %sub.i, ptr %addr.i, align 8
  %12 = load i64, ptr %addr.i, align 8
  %13 = inttoptr i64 %12 to ptr
  %14 = load i64, ptr %13, align 8
  store i64 %14, ptr %embedder_data.i, align 8
  %15 = load i32, ptr %index.addr.i, align 4
  %mul.i = mul nsw i32 8, %15
  %add.i = add nsw i32 16, %mul.i
  store i32 %add.i, ptr %value_offset.i, align 4
  %16 = load i64, ptr %ctx.i, align 8
  store i64 %16, ptr %obj.addr.i, align 8
  store ptr null, ptr %isolate.i, align 8
  %17 = load ptr, ptr %isolate.i, align 8
  %18 = load i64, ptr %embedder_data.i, align 8
  %19 = load i32, ptr %value_offset.i, align 4
  store ptr %17, ptr %isolate.addr.i, align 8
  store i64 %18, ptr %heap_object_ptr.addr.i29, align 8
  store i32 %19, ptr %offset.addr.i30, align 4
  %20 = load i64, ptr %heap_object_ptr.addr.i29, align 8
  %21 = load i32, ptr %offset.addr.i30, align 4
  store i64 %20, ptr %heap_object_ptr.addr.i.i, align 8
  store i32 %21, ptr %offset.addr.i.i, align 4
  %22 = load i64, ptr %heap_object_ptr.addr.i.i, align 8
  %23 = load i32, ptr %offset.addr.i.i, align 4
  %conv.i.i = sext i32 %23 to i64
  %add.i.i = add i64 %22, %conv.i.i
  %sub.i.i = sub i64 %add.i.i, 1
  store i64 %sub.i.i, ptr %addr.i.i, align 8
  %24 = load i64, ptr %addr.i.i, align 8
  %25 = inttoptr i64 %24 to ptr
  %26 = load i64, ptr %25, align 8
  %27 = inttoptr i64 %26 to ptr
  %28 = load ptr, ptr @_ZN4node18ContextEmbedderTag18kNodeContextTagPtrE, align 8
  %cmp12 = icmp ne ptr %27, %28
  %lnot13 = xor i1 %cmp12, true
  %lnot14 = xor i1 %lnot13, true
  br i1 %lnot14, label %if.then15, label %if.end16

if.then15:                                        ; preds = %if.end9
  store i1 false, ptr %retval, align 1
  br label %return

if.end16:                                         ; preds = %if.end9
  store i1 true, ptr %retval, align 1
  br label %return

return:                                           ; preds = %if.end16, %if.then15, %if.then8, %if.then
  %29 = load i1, ptr %retval, align 1
  ret i1 %29
}

; Function Attrs: mustprogress nounwind uwtable
define dso_local noundef ptr @_ZN4node10contextify17ContextifyContext3GetEN2v85LocalINS2_6ObjectEEE(ptr %object.coerce) #4 align 2 {
entry:
  %this.addr.i.i45 = alloca ptr, align 8
  %this.addr.i46 = alloca ptr, align 8
  %this.addr.i.i41 = alloca ptr, align 8
  %this.addr.i42 = alloca ptr, align 8
  %slot.addr.i40 = alloca ptr, align 8
  %this.addr.i.i36 = alloca ptr, align 8
  %this.addr.i37 = alloca ptr, align 8
  %slot.addr.i = alloca ptr, align 8
  %this.addr.i.i = alloca ptr, align 8
  %this.addr.i34 = alloca ptr, align 8
  %heap_object_ptr.addr.i.i = alloca i64, align 8
  %offset.addr.i.i = alloca i32, align 4
  %addr.i.i = alloca i64, align 8
  %isolate.addr.i = alloca ptr, align 8
  %heap_object_ptr.addr.i32 = alloca i64, align 8
  %offset.addr.i33 = alloca i32, align 4
  %obj.addr.i = alloca i64, align 8
  %value.addr.i = alloca ptr, align 8
  %heap_object_ptr.addr.i29 = alloca i64, align 8
  %offset.addr.i30 = alloca i32, align 4
  %addr.i = alloca i64, align 8
  %heap_object_ptr.addr.i = alloca i64, align 8
  %offset.addr.i = alloca i32, align 4
  %this.addr.i25 = alloca ptr, align 8
  %index.addr.i = alloca i32, align 4
  %ctx.i = alloca i64, align 8
  %embedder_data.i = alloca i64, align 8
  %value_offset.i = alloca i32, align 4
  %isolate.i = alloca ptr, align 8
  %this.addr.i22 = alloca ptr, align 8
  %this.addr.i19 = alloca ptr, align 8
  %out.addr.i = alloca ptr, align 8
  %this.addr.i17 = alloca ptr, align 8
  %this.addr.i = alloca ptr, align 8
  %retval = alloca ptr, align 8
  %object = alloca %"class.v8::Local", align 8
  %context = alloca %"class.v8::Local.316", align 8
  %ref.tmp = alloca %"class.v8::MaybeLocal", align 8
  %agg.tmp = alloca %"class.v8::Local.316", align 8
  %coerce.dive = getelementptr inbounds %"class.v8::Local", ptr %object, i32 0, i32 0
  %coerce.dive1 = getelementptr inbounds %"class.v8::LocalBase", ptr %coerce.dive, i32 0, i32 0
  %coerce.dive2 = getelementptr inbounds %"class.v8::IndirectHandleBase", ptr %coerce.dive1, i32 0, i32 0
  store ptr %object.coerce, ptr %coerce.dive2, align 8
  store ptr %context, ptr %this.addr.i17, align 8
  %this1.i18 = load ptr, ptr %this.addr.i17, align 8
  store ptr %this1.i18, ptr %this.addr.i46, align 8
  %this1.i47 = load ptr, ptr %this.addr.i46, align 8
  store ptr %this1.i47, ptr %this.addr.i.i45, align 8
  %this1.i.i48 = load ptr, ptr %this.addr.i.i45, align 8
  store ptr null, ptr %this1.i.i48, align 8
  store ptr %object, ptr %this.addr.i22, align 8
  %this1.i23 = load ptr, ptr %this.addr.i22, align 8
  store ptr %this1.i23, ptr %this.addr.i34, align 8
  %this1.i35 = load ptr, ptr %this.addr.i34, align 8
  store ptr %this1.i35, ptr %this.addr.i.i, align 8
  %this1.i.i = load ptr, ptr %this.addr.i.i, align 8
  %0 = load ptr, ptr %this1.i.i, align 8
  store ptr %0, ptr %slot.addr.i, align 8
  %1 = load ptr, ptr %slot.addr.i, align 8
  %call3 = call ptr @_ZN2v86Object18GetCreationContextEv(ptr noundef nonnull align 1 dereferenceable(1) %1)
  %coerce.dive4 = getelementptr inbounds %"class.v8::MaybeLocal", ptr %ref.tmp, i32 0, i32 0
  %coerce.dive5 = getelementptr inbounds %"class.v8::Local.316", ptr %coerce.dive4, i32 0, i32 0
  %coerce.dive6 = getelementptr inbounds %"class.v8::LocalBase.317", ptr %coerce.dive5, i32 0, i32 0
  %coerce.dive7 = getelementptr inbounds %"class.v8::IndirectHandleBase", ptr %coerce.dive6, i32 0, i32 0
  store ptr %call3, ptr %coerce.dive7, align 8
  store ptr %ref.tmp, ptr %this.addr.i19, align 8
  store ptr %context, ptr %out.addr.i, align 8
  %this1.i20 = load ptr, ptr %this.addr.i19, align 8
  %2 = load ptr, ptr %out.addr.i, align 8
  call void @llvm.memcpy.p0.p0.i64(ptr align 8 %2, ptr align 8 %this1.i20, i64 8, i1 false)
  store ptr %this1.i20, ptr %this.addr.i42, align 8
  %this1.i43 = load ptr, ptr %this.addr.i42, align 8
  store ptr %this1.i43, ptr %this.addr.i.i41, align 8
  %this1.i.i44 = load ptr, ptr %this.addr.i.i41, align 8
  %3 = load ptr, ptr %this1.i.i44, align 8
  %cmp.i.i = icmp eq ptr %3, null
  %lnot.i = xor i1 %cmp.i.i, true
  %lnot = xor i1 %lnot.i, true
  br i1 %lnot, label %if.then, label %if.end

if.then:                                          ; preds = %entry
  store ptr null, ptr %retval, align 8
  br label %return

if.end:                                           ; preds = %entry
  call void @llvm.memcpy.p0.p0.i64(ptr align 8 %agg.tmp, ptr align 8 %context, i64 8, i1 false)
  %coerce.dive9 = getelementptr inbounds %"class.v8::Local.316", ptr %agg.tmp, i32 0, i32 0
  %coerce.dive10 = getelementptr inbounds %"class.v8::LocalBase.317", ptr %coerce.dive9, i32 0, i32 0
  %coerce.dive11 = getelementptr inbounds %"class.v8::IndirectHandleBase", ptr %coerce.dive10, i32 0, i32 0
  %4 = load ptr, ptr %coerce.dive11, align 8
  %call12 = call noundef zeroext i1 @_ZN4node18ContextEmbedderTag13IsNodeContextEN2v85LocalINS1_7ContextEEE(ptr %4)
  br i1 %call12, label %if.end14, label %if.then13

if.then13:                                        ; preds = %if.end
  store ptr null, ptr %retval, align 8
  br label %return

if.end14:                                         ; preds = %if.end
  store ptr %context, ptr %this.addr.i, align 8
  %this1.i = load ptr, ptr %this.addr.i, align 8
  store ptr %this1.i, ptr %this.addr.i37, align 8
  %this1.i38 = load ptr, ptr %this.addr.i37, align 8
  store ptr %this1.i38, ptr %this.addr.i.i36, align 8
  %this1.i.i39 = load ptr, ptr %this.addr.i.i36, align 8
  %5 = load ptr, ptr %this1.i.i39, align 8
  store ptr %5, ptr %slot.addr.i40, align 8
  %6 = load ptr, ptr %slot.addr.i40, align 8
  store ptr %6, ptr %this.addr.i25, align 8
  store i32 37, ptr %index.addr.i, align 4
  %this1.i26 = load ptr, ptr %this.addr.i25, align 8
  store ptr %this1.i26, ptr %value.addr.i, align 8
  %7 = load ptr, ptr %value.addr.i, align 8
  %8 = load i64, ptr %7, align 8
  store i64 %8, ptr %ctx.i, align 8
  %9 = load i64, ptr %ctx.i, align 8
  store i64 %9, ptr %heap_object_ptr.addr.i, align 8
  store i32 48, ptr %offset.addr.i, align 4
  %10 = load i64, ptr %heap_object_ptr.addr.i, align 8
  %11 = load i32, ptr %offset.addr.i, align 4
  store i64 %10, ptr %heap_object_ptr.addr.i29, align 8
  store i32 %11, ptr %offset.addr.i30, align 4
  %12 = load i64, ptr %heap_object_ptr.addr.i29, align 8
  %13 = load i32, ptr %offset.addr.i30, align 4
  %conv.i = sext i32 %13 to i64
  %add.i31 = add i64 %12, %conv.i
  %sub.i = sub i64 %add.i31, 1
  store i64 %sub.i, ptr %addr.i, align 8
  %14 = load i64, ptr %addr.i, align 8
  %15 = inttoptr i64 %14 to ptr
  %16 = load i64, ptr %15, align 8
  store i64 %16, ptr %embedder_data.i, align 8
  %17 = load i32, ptr %index.addr.i, align 4
  %mul.i = mul nsw i32 8, %17
  %add.i = add nsw i32 16, %mul.i
  store i32 %add.i, ptr %value_offset.i, align 4
  %18 = load i64, ptr %ctx.i, align 8
  store i64 %18, ptr %obj.addr.i, align 8
  store ptr null, ptr %isolate.i, align 8
  %19 = load ptr, ptr %isolate.i, align 8
  %20 = load i64, ptr %embedder_data.i, align 8
  %21 = load i32, ptr %value_offset.i, align 4
  store ptr %19, ptr %isolate.addr.i, align 8
  store i64 %20, ptr %heap_object_ptr.addr.i32, align 8
  store i32 %21, ptr %offset.addr.i33, align 4
  %22 = load i64, ptr %heap_object_ptr.addr.i32, align 8
  %23 = load i32, ptr %offset.addr.i33, align 4
  store i64 %22, ptr %heap_object_ptr.addr.i.i, align 8
  store i32 %23, ptr %offset.addr.i.i, align 4
  %24 = load i64, ptr %heap_object_ptr.addr.i.i, align 8
  %25 = load i32, ptr %offset.addr.i.i, align 4
  %conv.i.i = sext i32 %25 to i64
  %add.i.i = add i64 %24, %conv.i.i
  %sub.i.i = sub i64 %add.i.i, 1
  store i64 %sub.i.i, ptr %addr.i.i, align 8
  %26 = load i64, ptr %addr.i.i, align 8
  %27 = inttoptr i64 %26 to ptr
  %28 = load i64, ptr %27, align 8
  %29 = inttoptr i64 %28 to ptr
  store ptr %29, ptr %retval, align 8
  br label %return

return:                                           ; preds = %if.end14, %if.then13, %if.then
  %30 = load ptr, ptr %retval, align 8
  ret ptr %30
}