; Function Attrs: mustprogress nounwind uwtable
define dso_local noundef ptr @_ZN4node10contextify17ContextifyContext3GetEN2v85LocalINS2_6ObjectEEE(ptr nonnull %object.coerce) local_unnamed_addr #3 align 2 {
entry:
  %call3 = tail call ptr @_ZN2v86Object18GetCreationContextEv(ptr noundef nonnull align 1 dereferenceable(1) %object.coerce) #21
  %cmp.i.i = icmp eq ptr %call3, null
  br i1 %cmp.i.i, label %return, label %if.end.i

if.end.i:                                         ; preds = %entry
  %call5.i = tail call noundef i32 @_ZN2v87Context29GetNumberOfEmbedderDataFieldsEv(ptr noundef nonnull align 1 dereferenceable(1) %call3) #21
  %cmp.i = icmp ult i32 %call5.i, 40
  br i1 %cmp.i, label %return, label %_ZN4node18ContextEmbedderTag13IsNodeContextEN2v85LocalINS1_7ContextEEE.exit

_ZN4node18ContextEmbedderTag13IsNodeContextEN2v85LocalINS1_7ContextEEE.exit: ; preds = %if.end.i
  %0 = load i64, ptr %call3, align 8
  %sub.i.i3 = add i64 %0, 47
  %1 = inttoptr i64 %sub.i.i3 to ptr
  %2 = load i64, ptr %1, align 8
  %sub.i.i.i = add i64 %2, 327
  %3 = inttoptr i64 %sub.i.i.i to ptr
  %4 = load i64, ptr %3, align 8
  %5 = inttoptr i64 %4 to ptr
  %6 = load ptr, ptr @_ZN4node18ContextEmbedderTag18kNodeContextTagPtrE, align 8
  %cmp12.not.i = icmp eq ptr %6, %5
  br i1 %cmp12.not.i, label %if.end14, label %return

if.end14:                                         ; preds = %_ZN4node18ContextEmbedderTag13IsNodeContextEN2v85LocalINS1_7ContextEEE.exit
  %sub.i.i = add i64 %2, 311
  %7 = inttoptr i64 %sub.i.i to ptr
  %8 = load i64, ptr %7, align 8
  %9 = inttoptr i64 %8 to ptr
  br label %return

return:                                           ; preds = %if.end.i, %_ZN4node18ContextEmbedderTag13IsNodeContextEN2v85LocalINS1_7ContextEEE.exit, %entry, %if.end14
  %retval.0 = phi ptr [ %9, %if.end14 ], [ null, %entry ], [ null, %_ZN4node18ContextEmbedderTag13IsNodeContextEN2v85LocalINS1_7ContextEEE.exit ], [ null, %if.end.i ]
  ret ptr %retval.0
}